; Function Attrs: nounwind uwtable
define dso_local range(i32 0, 2) i32 @tls13_hkdf_expand(ptr noundef %0, ptr noundef %1, ptr noundef %2, ptr noundef %3, i64 noundef %4, ptr noundef %5, i64 noundef %6, ptr noundef %7, i64 noundef %8, i32 noundef %9) local_unnamed_addr #0 {
  %11 = getelementptr inbounds nuw i8, ptr %0, i64 8
  %12 = load ptr, ptr %11, align 8, !tbaa !15
  %13 = load ptr, ptr %12, align 8, !tbaa !75
  %14 = getelementptr inbounds nuw i8, ptr %12, i64 1152
  %15 = load ptr, ptr %14, align 8, !tbaa !90
  %16 = icmp ne i32 %9, 0
  %17 = xor i1 %16, true
  %18 = zext i1 %17 to i32
  %19 = tail call i32 @tls13_hkdf_expand_ex(ptr noundef %13, ptr noundef %15, ptr noundef %1, ptr noundef %2, ptr noundef %3, i64 noundef %4, ptr noundef %5, i64 noundef %6, ptr noundef %7, i64 noundef %8, i32 noundef %18)
  %20 = icmp eq i32 %19, 0
  %or.cond = and i1 %16, %20
  br i1 %or.cond, label %21, label %22

21:                                               ; preds = %10
  tail call void @ERR_new() #4
  tail call void @ERR_set_debug(ptr noundef nonnull @.str.1, i32 noundef 113, ptr noundef nonnull @__func__.tls13_hkdf_expand) #4
  tail call void (ptr, i32, i32, ptr, ...) @ossl_statem_fatal(ptr noundef nonnull %0, i32 noundef 80, i32 noundef 786691, ptr noundef null) #4
  br label %22

22:                                               ; preds = %21, %10
  ret i32 %19
}